; Function Attrs: nounwind uwtable
define dso_local i32 @curl_easy_getinfo(ptr noundef %0, i32 noundef %1, ...) local_unnamed_addr #5 {
  %3 = alloca [1 x %struct.__va_list_tag], align 16
  call void @llvm.lifetime.start.p0(i64 24, ptr nonnull %3) #12
  call void @llvm.va_start.p0(ptr nonnull %3)
  %4 = load i32, ptr %3, align 16
  %5 = icmp ult i32 %4, 41
  br i1 %5, label %6, label %12

6:                                                ; preds = %2
  %7 = getelementptr inbounds nuw i8, ptr %3, i64 16
  %8 = load ptr, ptr %7, align 16
  %9 = zext nneg i32 %4 to i64
  %10 = getelementptr i8, ptr %8, i64 %9
  %11 = add nuw nsw i32 %4, 8
  store i32 %11, ptr %3, align 16
  br label %16

12:                                               ; preds = %2
  %13 = getelementptr inbounds nuw i8, ptr %3, i64 8
  %14 = load ptr, ptr %13, align 8
  %15 = getelementptr i8, ptr %14, i64 8
  store ptr %15, ptr %13, align 8
  br label %16

16:                                               ; preds = %12, %6
  %17 = phi ptr [ %10, %6 ], [ %14, %12 ]
  %18 = load ptr, ptr %17, align 8, !tbaa !8
  %19 = call i32 (ptr, i32, ...) @Curl_getinfo(ptr noundef %0, i32 noundef %1, ptr noundef %18) #12
  call void @llvm.va_end.p0(ptr nonnull %3)
  call void @llvm.lifetime.end.p0(i64 24, ptr nonnull %3) #12
  ret i32 %19
}